target datalayout = "e-m:e-p270:32:32-p271:32:32-p272:64:64-i64:64-i128:128-f80:128-n8:16:32:64-S128"
target triple = "x86_64-pc-linux-gnu"

; Function Attrs: mustprogress nounwind uwtable
define dso_local noundef ptr @_ZN4Luau11LintWarning7getNameENS0_4CodeE(i32 noundef %0) #2 align 2 {
  %2 = alloca i32, align 4
  store i32 %0, ptr %2, align 4, !tbaa !14
  %3 = load i32, ptr %2, align 4, !tbaa !14
  %4 = zext i32 %3 to i64
  %5 = getelementptr inbounds nuw [30 x ptr], ptr @_ZN4LuauL13kWarningNamesE, i64 0, i64 %4
  %6 = load ptr, ptr %5, align 8, !tbaa !16
  ret ptr %6
}

; Function Attrs: mustprogress nounwind uwtable
define dso_local noundef i32 @_ZN4Luau11LintWarning9parseNameEPKc(ptr noundef %0) #2 align 2 {
  %2 = alloca i32, align 4
  %3 = alloca ptr, align 8
  %4 = alloca i32, align 4
  %5 = alloca i32, align 4
  store ptr %0, ptr %3, align 8, !tbaa !16
  call void @llvm.lifetime.start.p0(i64 4, ptr %4) #9
  store i32 0, ptr %4, align 4, !tbaa !4
  br label %6

6:                                                ; preds = %19, %1
  %7 = load i32, ptr %4, align 4, !tbaa !4
  %8 = icmp slt i32 %7, 30
  br i1 %8, label %10, label %9

9:                                                ; preds = %6
  store i32 2, ptr %5, align 4
  br label %22

10:                                               ; preds = %6
  %11 = load ptr, ptr %3, align 8, !tbaa !16
  %12 = load i32, ptr %4, align 4, !tbaa !4
  %13 = call noundef ptr @_ZN4Luau11LintWarning7getNameENS0_4CodeE(i32 noundef %12)
  %14 = call i32 @strcmp(ptr noundef %11, ptr noundef %13) #10
  %15 = icmp eq i32 %14, 0
  br i1 %15, label %16, label %18

16:                                               ; preds = %10
  %17 = load i32, ptr %4, align 4, !tbaa !4
  store i32 %17, ptr %2, align 4
  store i32 1, ptr %5, align 4
  br label %22

18:                                               ; preds = %10
  br label %19

19:                                               ; preds = %18
  %20 = load i32, ptr %4, align 4, !tbaa !4
  %21 = add nsw i32 %20, 1
  store i32 %21, ptr %4, align 4, !tbaa !4
  br label %6, !llvm.loop !18

22:                                               ; preds = %16, %9
  call void @llvm.lifetime.end.p0(i64 4, ptr %4) #9
  %23 = load i32, ptr %5, align 4
  switch i32 %23, label %27 [
    i32 2, label %24
    i32 1, label %25
  ]

24:                                               ; preds = %22
  store i32 0, ptr %2, align 4
  br label %25

25:                                               ; preds = %24, %22
  %26 = load i32, ptr %2, align 4
  ret i32 %26

27:                                               ; preds = %22
  unreachable
}